target datalayout = "e-m:e-p270:32:32-p271:32:32-p272:64:64-i64:64-i128:128-f80:128-n8:16:32:64-S128"
target triple = "x86_64-pc-linux-gnu"

; Function Attrs: mustprogress nounwind uwtable
define internal noundef nofpclass(nan inf) float @_ZN4ncnnL13vstr_to_floatEPKc(ptr noundef %0) #0 {
  %2 = alloca ptr, align 8
  %3 = alloca double, align 8
  %4 = alloca ptr, align 8
  %5 = alloca i8, align 1
  %6 = alloca i32, align 4
  %7 = alloca i32, align 4
  %8 = alloca i32, align 4
  %9 = alloca i8, align 1
  %10 = alloca i32, align 4
  %11 = alloca double, align 8
  store ptr %0, ptr %2, align 8, !tbaa !49
  call void @llvm.lifetime.start.p0(i64 8, ptr %3) #17
  store double 0.000000e+00, ptr %3, align 8, !tbaa !83
  call void @llvm.lifetime.start.p0(i64 8, ptr %4) #17
  %12 = load ptr, ptr %2, align 8, !tbaa !49
  store ptr %12, ptr %4, align 8, !tbaa !49
  call void @llvm.lifetime.start.p0(i64 1, ptr %5) #17
  %13 = load ptr, ptr %4, align 8, !tbaa !49
  %14 = load i8, ptr %13, align 1, !tbaa !26
  %15 = sext i8 %14 to i32
  %16 = icmp ne i32 %15, 45
  %17 = zext i1 %16 to i8
  store i8 %17, ptr %5, align 1, !tbaa !69
  %18 = load ptr, ptr %4, align 8, !tbaa !49
  %19 = load i8, ptr %18, align 1, !tbaa !26
  %20 = sext i8 %19 to i32
  %21 = icmp eq i32 %20, 43
  br i1 %21, label %27, label %22

22:                                               ; preds = %1
  %23 = load ptr, ptr %4, align 8, !tbaa !49
  %24 = load i8, ptr %23, align 1, !tbaa !26
  %25 = sext i8 %24 to i32
  %26 = icmp eq i32 %25, 45
  br i1 %26, label %27, label %30

27:                                               ; preds = %22, %1
  %28 = load ptr, ptr %4, align 8, !tbaa !49
  %29 = getelementptr inbounds nuw i8, ptr %28, i32 1
  store ptr %29, ptr %4, align 8, !tbaa !49
  br label %30

30:                                               ; preds = %27, %22
  call void @llvm.lifetime.start.p0(i64 4, ptr %6) #17
  store i32 0, ptr %6, align 4, !tbaa !15
  br label %31

31:                                               ; preds = %37, %30
  %32 = load ptr, ptr %4, align 8, !tbaa !49
  %33 = load i8, ptr %32, align 1, !tbaa !26
  %34 = sext i8 %33 to i32
  %35 = call i32 @isdigit(i32 noundef %34) #21
  %36 = icmp ne i32 %35, 0
  br i1 %36, label %37, label %47

37:                                               ; preds = %31
  %38 = load i32, ptr %6, align 4, !tbaa !15
  %39 = mul i32 %38, 10
  %40 = load ptr, ptr %4, align 8, !tbaa !49
  %41 = load i8, ptr %40, align 1, !tbaa !26
  %42 = sext i8 %41 to i32
  %43 = sub nsw i32 %42, 48
  %44 = add i32 %39, %43
  store i32 %44, ptr %6, align 4, !tbaa !15
  %45 = load ptr, ptr %4, align 8, !tbaa !49
  %46 = getelementptr inbounds nuw i8, ptr %45, i32 1
  store ptr %46, ptr %4, align 8, !tbaa !49
  br label %31, !llvm.loop !85

47:                                               ; preds = %31
  %48 = load i32, ptr %6, align 4, !tbaa !15
  %49 = uitofp i32 %48 to double
  store double %49, ptr %3, align 8, !tbaa !83
  %50 = load ptr, ptr %4, align 8, !tbaa !49
  %51 = load i8, ptr %50, align 1, !tbaa !26
  %52 = sext i8 %51 to i32
  %53 = icmp eq i32 %52, 46
  br i1 %53, label %54, label %83

54:                                               ; preds = %47
  %55 = load ptr, ptr %4, align 8, !tbaa !49
  %56 = getelementptr inbounds nuw i8, ptr %55, i32 1
  store ptr %56, ptr %4, align 8, !tbaa !49
  call void @llvm.lifetime.start.p0(i64 4, ptr %7) #17
  store i32 1, ptr %7, align 4, !tbaa !15
  call void @llvm.lifetime.start.p0(i64 4, ptr %8) #17
  store i32 0, ptr %8, align 4, !tbaa !15
  br label %57

57:                                               ; preds = %63, %54
  %58 = load ptr, ptr %4, align 8, !tbaa !49
  %59 = load i8, ptr %58, align 1, !tbaa !26
  %60 = sext i8 %59 to i32
  %61 = call i32 @isdigit(i32 noundef %60) #21
  %62 = icmp ne i32 %61, 0
  br i1 %62, label %63, label %75

63:                                               ; preds = %57
  %64 = load i32, ptr %8, align 4, !tbaa !15
  %65 = mul i32 %64, 10
  %66 = load ptr, ptr %4, align 8, !tbaa !49
  %67 = load i8, ptr %66, align 1, !tbaa !26
  %68 = sext i8 %67 to i32
  %69 = sub nsw i32 %68, 48
  %70 = add i32 %65, %69
  store i32 %70, ptr %8, align 4, !tbaa !15
  %71 = load i32, ptr %7, align 4, !tbaa !15
  %72 = mul i32 %71, 10
  store i32 %72, ptr %7, align 4, !tbaa !15
  %73 = load ptr, ptr %4, align 8, !tbaa !49
  %74 = getelementptr inbounds nuw i8, ptr %73, i32 1
  store ptr %74, ptr %4, align 8, !tbaa !49
  br label %57, !llvm.loop !86

75:                                               ; preds = %57
  %76 = load i32, ptr %8, align 4, !tbaa !15
  %77 = uitofp i32 %76 to double
  %78 = load i32, ptr %7, align 4, !tbaa !15
  %79 = uitofp i32 %78 to double
  %80 = fdiv fast double %77, %79
  %81 = load double, ptr %3, align 8, !tbaa !83
  %82 = fadd fast double %81, %80
  store double %82, ptr %3, align 8, !tbaa !83
  call void @llvm.lifetime.end.p0(i64 4, ptr %8) #17
  call void @llvm.lifetime.end.p0(i64 4, ptr %7) #17
  br label %83

83:                                               ; preds = %75, %47
  %84 = load ptr, ptr %4, align 8, !tbaa !49
  %85 = load i8, ptr %84, align 1, !tbaa !26
  %86 = sext i8 %85 to i32
  %87 = icmp eq i32 %86, 101
  br i1 %87, label %93, label %88

88:                                               ; preds = %83
  %89 = load ptr, ptr %4, align 8, !tbaa !49
  %90 = load i8, ptr %89, align 1, !tbaa !26
  %91 = sext i8 %90 to i32
  %92 = icmp eq i32 %91, 69
  br i1 %92, label %93, label %161

93:                                               ; preds = %88, %83
  %94 = load ptr, ptr %4, align 8, !tbaa !49
  %95 = getelementptr inbounds nuw i8, ptr %94, i32 1
  store ptr %95, ptr %4, align 8, !tbaa !49
  call void @llvm.lifetime.start.p0(i64 1, ptr %9) #17
  %96 = load ptr, ptr %4, align 8, !tbaa !49
  %97 = load i8, ptr %96, align 1, !tbaa !26
  %98 = sext i8 %97 to i32
  %99 = icmp ne i32 %98, 45
  %100 = zext i1 %99 to i8
  store i8 %100, ptr %9, align 1, !tbaa !69
  %101 = load ptr, ptr %4, align 8, !tbaa !49
  %102 = load i8, ptr %101, align 1, !tbaa !26
  %103 = sext i8 %102 to i32
  %104 = icmp eq i32 %103, 43
  br i1 %104, label %110, label %105

105:                                              ; preds = %93
  %106 = load ptr, ptr %4, align 8, !tbaa !49
  %107 = load i8, ptr %106, align 1, !tbaa !26
  %108 = sext i8 %107 to i32
  %109 = icmp eq i32 %108, 45
  br i1 %109, label %110, label %113

110:                                              ; preds = %105, %93
  %111 = load ptr, ptr %4, align 8, !tbaa !49
  %112 = getelementptr inbounds nuw i8, ptr %111, i32 1
  store ptr %112, ptr %4, align 8, !tbaa !49
  br label %113

113:                                              ; preds = %110, %105
  call void @llvm.lifetime.start.p0(i64 4, ptr %10) #17
  store i32 0, ptr %10, align 4, !tbaa !15
  br label %114

114:                                              ; preds = %120, %113
  %115 = load ptr, ptr %4, align 8, !tbaa !49
  %116 = load i8, ptr %115, align 1, !tbaa !26
  %117 = sext i8 %116 to i32
  %118 = call i32 @isdigit(i32 noundef %117) #21
  %119 = icmp ne i32 %118, 0
  br i1 %119, label %120, label %130

120:                                              ; preds = %114
  %121 = load i32, ptr %10, align 4, !tbaa !15
  %122 = mul i32 %121, 10
  %123 = load ptr, ptr %4, align 8, !tbaa !49
  %124 = load i8, ptr %123, align 1, !tbaa !26
  %125 = sext i8 %124 to i32
  %126 = sub nsw i32 %125, 48
  %127 = add i32 %122, %126
  store i32 %127, ptr %10, align 4, !tbaa !15
  %128 = load ptr, ptr %4, align 8, !tbaa !49
  %129 = getelementptr inbounds nuw i8, ptr %128, i32 1
  store ptr %129, ptr %4, align 8, !tbaa !49
  br label %114, !llvm.loop !87

130:                                              ; preds = %114
  call void @llvm.lifetime.start.p0(i64 8, ptr %11) #17
  store double 1.000000e+00, ptr %11, align 8, !tbaa !83
  br label %131

131:                                              ; preds = %134, %130
  %132 = load i32, ptr %10, align 4, !tbaa !15
  %133 = icmp uge i32 %132, 8
  br i1 %133, label %134, label %139

134:                                              ; preds = %131
  %135 = load double, ptr %11, align 8, !tbaa !83
  %136 = fmul fast double %135, 1.000000e+08
  store double %136, ptr %11, align 8, !tbaa !83
  %137 = load i32, ptr %10, align 4, !tbaa !15
  %138 = sub i32 %137, 8
  store i32 %138, ptr %10, align 4, !tbaa !15
  br label %131, !llvm.loop !88

139:                                              ; preds = %131
  br label %140

140:                                              ; preds = %143, %139
  %141 = load i32, ptr %10, align 4, !tbaa !15
  %142 = icmp ugt i32 %141, 0
  br i1 %142, label %143, label %148

143:                                              ; preds = %140
  %144 = load double, ptr %11, align 8, !tbaa !83
  %145 = fmul fast double %144, 1.000000e+01
  store double %145, ptr %11, align 8, !tbaa !83
  %146 = load i32, ptr %10, align 4, !tbaa !15
  %147 = sub i32 %146, 1
  store i32 %147, ptr %10, align 4, !tbaa !15
  br label %140, !llvm.loop !89

148:                                              ; preds = %140
  %149 = load i8, ptr %9, align 1, !tbaa !69, !range !71, !noundef !72
  %150 = trunc i8 %149 to i1
  br i1 %150, label %151, label %155

151:                                              ; preds = %148
  %152 = load double, ptr %3, align 8, !tbaa !83
  %153 = load double, ptr %11, align 8, !tbaa !83
  %154 = fmul fast double %152, %153
  br label %159

155:                                              ; preds = %148
  %156 = load double, ptr %3, align 8, !tbaa !83
  %157 = load double, ptr %11, align 8, !tbaa !83
  %158 = fdiv fast double %156, %157
  br label %159

159:                                              ; preds = %155, %151
  %160 = phi fast double [ %154, %151 ], [ %158, %155 ]
  store double %160, ptr %3, align 8, !tbaa !83
  call void @llvm.lifetime.end.p0(i64 8, ptr %11) #17
  call void @llvm.lifetime.end.p0(i64 4, ptr %10) #17
  call void @llvm.lifetime.end.p0(i64 1, ptr %9) #17
  br label %161

161:                                              ; preds = %159, %88
  %162 = load i8, ptr %5, align 1, !tbaa !69, !range !71, !noundef !72
  %163 = trunc i8 %162 to i1
  br i1 %163, label %164, label %167

164:                                              ; preds = %161
  %165 = load double, ptr %3, align 8, !tbaa !83
  %166 = fptrunc fast double %165 to float
  br label %171

167:                                              ; preds = %161
  %168 = load double, ptr %3, align 8, !tbaa !83
  %169 = fneg fast double %168
  %170 = fptrunc fast double %169 to float
  br label %171

171:                                              ; preds = %167, %164
  %172 = phi fast float [ %166, %164 ], [ %170, %167 ]
  call void @llvm.lifetime.end.p0(i64 4, ptr %6) #17
  call void @llvm.lifetime.end.p0(i64 1, ptr %5) #17
  call void @llvm.lifetime.end.p0(i64 8, ptr %4) #17
  call void @llvm.lifetime.end.p0(i64 8, ptr %3) #17
  ret float %172
}