; Function Attrs: mustprogress nofree norecurse nosync nounwind willreturn memory(read, inaccessiblemem: none) uwtable
define internal fastcc noundef nofpclass(nan inf) float @_ZN4ncnnL13vstr_to_floatEPKc(ptr noundef nonnull readonly captures(none) %0) unnamed_addr #9 {
  %2 = load i8, ptr %0, align 1, !tbaa !20
  switch i8 %2, label %5 [
    i8 43, label %3
    i8 45, label %3
  ]

3:                                                ; preds = %1, %1
  %4 = getelementptr inbounds nuw i8, ptr %0, i64 1
  %.pre = load i8, ptr %4, align 1, !tbaa !20
  br label %5

5:                                                ; preds = %1, %3
  %6 = phi i8 [ %.pre, %3 ], [ %2, %1 ]
  %.051 = phi ptr [ %4, %3 ], [ %0, %1 ]
  %7 = sext i8 %6 to i32
  %isdigittmp65 = add nsw i32 %7, -48
  %isdigit66 = icmp ult i32 %isdigittmp65, 10
  br i1 %isdigit66, label %.lr.ph, label %._crit_edge

.lr.ph:                                           ; preds = %5, %.lr.ph
  %isdigittmp69 = phi i32 [ %isdigittmp, %.lr.ph ], [ %isdigittmp65, %5 ]
  %.05068 = phi i32 [ %9, %.lr.ph ], [ 0, %5 ]
  %.15267 = phi ptr [ %10, %.lr.ph ], [ %.051, %5 ]
  %8 = mul i32 %.05068, 10
  %9 = add i32 %isdigittmp69, %8
  %10 = getelementptr inbounds nuw i8, ptr %.15267, i64 1
  %11 = load i8, ptr %10, align 1, !tbaa !20
  %12 = sext i8 %11 to i32
  %isdigittmp = add nsw i32 %12, -48
  %isdigit = icmp ult i32 %isdigittmp, 10
  br i1 %isdigit, label %.lr.ph, label %._crit_edge.loopexit, !llvm.loop !46

._crit_edge.loopexit:                             ; preds = %.lr.ph
  %13 = uitofp i32 %9 to double
  br label %._crit_edge

._crit_edge:                                      ; preds = %._crit_edge.loopexit, %5
  %.152.lcssa = phi ptr [ %.051, %5 ], [ %10, %._crit_edge.loopexit ]
  %.050.lcssa = phi double [ 0.000000e+00, %5 ], [ %13, %._crit_edge.loopexit ]
  %.lcssa = phi i8 [ %6, %5 ], [ %11, %._crit_edge.loopexit ]
  %14 = icmp eq i8 %.lcssa, 46
  br i1 %14, label %.preheader64, label %28

.preheader64:                                     ; preds = %._crit_edge
  %.372 = getelementptr inbounds nuw i8, ptr %.152.lcssa, i64 1
  %15 = load i8, ptr %.372, align 1, !tbaa !20
  %16 = sext i8 %15 to i32
  %isdigittmp5773 = add nsw i32 %16, -48
  %isdigit5874 = icmp ult i32 %isdigittmp5773, 10
  br i1 %isdigit5874, label %.lr.ph79, label %._crit_edge80

.lr.ph79:                                         ; preds = %.preheader64, %.lr.ph79
  %isdigittmp5778 = phi i32 [ %isdigittmp57, %.lr.ph79 ], [ %isdigittmp5773, %.preheader64 ]
  %.377 = phi ptr [ %.3, %.lr.ph79 ], [ %.372, %.preheader64 ]
  %.04876 = phi i32 [ %18, %.lr.ph79 ], [ 0, %.preheader64 ]
  %.04975 = phi i32 [ %19, %.lr.ph79 ], [ 1, %.preheader64 ]
  %17 = mul i32 %.04876, 10
  %18 = add i32 %isdigittmp5778, %17
  %19 = mul i32 %.04975, 10
  %.3 = getelementptr inbounds nuw i8, ptr %.377, i64 1
  %20 = load i8, ptr %.3, align 1, !tbaa !20
  %21 = sext i8 %20 to i32
  %isdigittmp57 = add nsw i32 %21, -48
  %isdigit58 = icmp ult i32 %isdigittmp57, 10
  br i1 %isdigit58, label %.lr.ph79, label %._crit_edge80.loopexit, !llvm.loop !47

._crit_edge80.loopexit:                           ; preds = %.lr.ph79
  %22 = uitofp i32 %18 to double
  %23 = uitofp i32 %19 to double
  %24 = fdiv fast double %22, %23
  br label %._crit_edge80

._crit_edge80:                                    ; preds = %._crit_edge80.loopexit, %.preheader64
  %25 = phi i8 [ %15, %.preheader64 ], [ %20, %._crit_edge80.loopexit ]
  %.3.lcssa = phi ptr [ %.372, %.preheader64 ], [ %.3, %._crit_edge80.loopexit ]
  %26 = phi double [ 0.000000e+00, %.preheader64 ], [ %24, %._crit_edge80.loopexit ]
  %27 = fadd fast double %26, %.050.lcssa
  br label %28

28:                                               ; preds = %._crit_edge80, %._crit_edge
  %29 = phi i8 [ %25, %._crit_edge80 ], [ %.lcssa, %._crit_edge ]
  %.253 = phi ptr [ %.3.lcssa, %._crit_edge80 ], [ %.152.lcssa, %._crit_edge ]
  %.046 = phi nsz double [ %27, %._crit_edge80 ], [ %.050.lcssa, %._crit_edge ]
  switch i8 %29, label %52 [
    i8 101, label %30
    i8 69, label %30
  ]

30:                                               ; preds = %28, %28
  %31 = getelementptr inbounds nuw i8, ptr %.253, i64 1
  %32 = load i8, ptr %31, align 1, !tbaa !20
  %.not59 = icmp eq i8 %32, 45
  switch i8 %32, label %35 [
    i8 43, label %33
    i8 45, label %33
  ]

33:                                               ; preds = %30, %30
  %34 = getelementptr inbounds nuw i8, ptr %.253, i64 2
  %.pre113 = load i8, ptr %34, align 1, !tbaa !20
  br label %35

35:                                               ; preds = %30, %33
  %36 = phi i8 [ %.pre113, %33 ], [ %32, %30 ]
  %.4 = phi ptr [ %34, %33 ], [ %31, %30 ]
  %37 = sext i8 %36 to i32
  %isdigittmp6084 = add nsw i32 %37, -48
  %isdigit6185 = icmp ult i32 %isdigittmp6084, 10
  br i1 %isdigit6185, label %.lr.ph90, label %._crit_edge101

.preheader63:                                     ; preds = %.lr.ph90
  %38 = icmp ugt i32 %40, 7
  br i1 %38, label %.lr.ph94, label %.preheader

.lr.ph90:                                         ; preds = %35, %.lr.ph90
  %isdigittmp6088 = phi i32 [ %isdigittmp60, %.lr.ph90 ], [ %isdigittmp6084, %35 ]
  %.04487 = phi i32 [ %40, %.lr.ph90 ], [ 0, %35 ]
  %.586 = phi ptr [ %41, %.lr.ph90 ], [ %.4, %35 ]
  %39 = mul i32 %.04487, 10
  %40 = add i32 %isdigittmp6088, %39
  %41 = getelementptr inbounds nuw i8, ptr %.586, i64 1
  %42 = load i8, ptr %41, align 1, !tbaa !20
  %43 = sext i8 %42 to i32
  %isdigittmp60 = add nsw i32 %43, -48
  %isdigit61 = icmp ult i32 %isdigittmp60, 10
  br i1 %isdigit61, label %.lr.ph90, label %.preheader63, !llvm.loop !48

.preheader:                                       ; preds = %.lr.ph94, %.preheader63
  %.145.lcssa = phi i32 [ %40, %.preheader63 ], [ %45, %.lr.ph94 ]
  %.0.lcssa = phi double [ 1.000000e+00, %.preheader63 ], [ %44, %.lr.ph94 ]
  %.not6297 = icmp eq i32 %.145.lcssa, 0
  br i1 %.not6297, label %._crit_edge101, label %.lr.ph100

.lr.ph94:                                         ; preds = %.preheader63, %.lr.ph94
  %.093 = phi double [ %44, %.lr.ph94 ], [ 1.000000e+00, %.preheader63 ]
  %.14592 = phi i32 [ %45, %.lr.ph94 ], [ %40, %.preheader63 ]
  %44 = fmul fast double %.093, 1.000000e+08
  %45 = add i32 %.14592, -8
  %46 = icmp ugt i32 %45, 7
  br i1 %46, label %.lr.ph94, label %.preheader, !llvm.loop !49

.lr.ph100:                                        ; preds = %.preheader, %.lr.ph100
  %.199 = phi double [ %47, %.lr.ph100 ], [ %.0.lcssa, %.preheader ]
  %.298 = phi i32 [ %48, %.lr.ph100 ], [ %.145.lcssa, %.preheader ]
  %47 = fmul fast double %.199, 1.000000e+01
  %48 = add nsw i32 %.298, -1
  %.not62 = icmp eq i32 %48, 0
  br i1 %.not62, label %._crit_edge101, label %.lr.ph100, !llvm.loop !50

._crit_edge101:                                   ; preds = %.lr.ph100, %35, %.preheader
  %.1.lcssa = phi double [ %.0.lcssa, %.preheader ], [ 1.000000e+00, %35 ], [ %47, %.lr.ph100 ]
  %49 = fmul fast double %.1.lcssa, %.046
  %50 = fdiv fast double %.046, %.1.lcssa
  %51 = select fast i1 %.not59, double %50, double %49
  br label %52

52:                                               ; preds = %28, %._crit_edge101
  %.147 = phi nsz double [ %51, %._crit_edge101 ], [ %.046, %28 ]
  %.not = icmp eq i8 %2, 45
  %53 = fptrunc fast double %.147 to float
  %54 = fneg fast float %53
  %55 = select fast i1 %.not, float %54, float %53
  ret float %55
}